; Function Attrs: inlinehint nounwind uwtable
define internal fastcc void @Psr_ManVecFree(ptr noundef captures(none) %0) unnamed_addr #4 {
  %2 = getelementptr i8, ptr %0, i64 4
  %.val8 = load i32, ptr %2, align 4, !tbaa !40
  %3 = icmp sgt i32 %.val8, 0
  br i1 %3, label %.lr.ph, label %.critedge

.lr.ph:                                           ; preds = %1
  %4 = getelementptr i8, ptr %0, i64 8
  br label %5

5:                                                ; preds = %.lr.ph, %Psr_NtkFree.exit
  %indvars.iv = phi i64 [ 0, %.lr.ph ], [ %indvars.iv.next, %Psr_NtkFree.exit ]
  %.val6 = load ptr, ptr %4, align 8, !tbaa !86
  %6 = getelementptr inbounds nuw ptr, ptr %.val6, i64 %indvars.iv
  %7 = load ptr, ptr %6, align 8, !tbaa !87
  %8 = getelementptr inbounds nuw i8, ptr %7, i64 8
  %9 = load ptr, ptr %8, align 8, !tbaa !88
  %.not.i = icmp eq ptr %9, null
  br i1 %.not.i, label %11, label %10

10:                                               ; preds = %5
  tail call void @Abc_NamDeref(ptr noundef nonnull %9) #14
  br label %11

11:                                               ; preds = %10, %5
  %12 = getelementptr inbounds nuw i8, ptr %7, i64 16
  %13 = getelementptr inbounds nuw i8, ptr %7, i64 24
  %14 = load ptr, ptr %13, align 8, !tbaa !80
  %.not.i.i = icmp eq ptr %14, null
  br i1 %.not.i.i, label %Vec_IntErase.exit.i, label %15

15:                                               ; preds = %11
  tail call void @free(ptr noundef nonnull %14) #14
  store ptr null, ptr %13, align 8, !tbaa !80
  br label %Vec_IntErase.exit.i

Vec_IntErase.exit.i:                              ; preds = %15, %11
  %16 = getelementptr inbounds nuw i8, ptr %7, i64 20
  store i32 0, ptr %16, align 4, !tbaa !48
  store i32 0, ptr %12, align 8, !tbaa !58
  %17 = getelementptr inbounds nuw i8, ptr %7, i64 32
  %18 = getelementptr inbounds nuw i8, ptr %7, i64 40
  %19 = load ptr, ptr %18, align 8, !tbaa !80
  %.not.i19.i = icmp eq ptr %19, null
  br i1 %.not.i19.i, label %Vec_IntErase.exit20.i, label %20

20:                                               ; preds = %Vec_IntErase.exit.i
  tail call void @free(ptr noundef nonnull %19) #14
  store ptr null, ptr %18, align 8, !tbaa !80
  br label %Vec_IntErase.exit20.i

Vec_IntErase.exit20.i:                            ; preds = %20, %Vec_IntErase.exit.i
  %21 = getelementptr inbounds nuw i8, ptr %7, i64 36
  store i32 0, ptr %21, align 4, !tbaa !48
  store i32 0, ptr %17, align 8, !tbaa !58
  %22 = getelementptr inbounds nuw i8, ptr %7, i64 48
  %23 = getelementptr inbounds nuw i8, ptr %7, i64 56
  %24 = load ptr, ptr %23, align 8, !tbaa !80
  %.not.i21.i = icmp eq ptr %24, null
  br i1 %.not.i21.i, label %Vec_IntErase.exit22.i, label %25

25:                                               ; preds = %Vec_IntErase.exit20.i
  tail call void @free(ptr noundef nonnull %24) #14
  store ptr null, ptr %23, align 8, !tbaa !80
  br label %Vec_IntErase.exit22.i

Vec_IntErase.exit22.i:                            ; preds = %25, %Vec_IntErase.exit20.i
  %26 = getelementptr inbounds nuw i8, ptr %7, i64 52
  store i32 0, ptr %26, align 4, !tbaa !48
  store i32 0, ptr %22, align 8, !tbaa !58
  %27 = getelementptr inbounds nuw i8, ptr %7, i64 64
  %28 = getelementptr inbounds nuw i8, ptr %7, i64 72
  %29 = load ptr, ptr %28, align 8, !tbaa !80
  %.not.i23.i = icmp eq ptr %29, null
  br i1 %.not.i23.i, label %Vec_IntErase.exit24.i, label %30

30:                                               ; preds = %Vec_IntErase.exit22.i
  tail call void @free(ptr noundef nonnull %29) #14
  store ptr null, ptr %28, align 8, !tbaa !80
  br label %Vec_IntErase.exit24.i

Vec_IntErase.exit24.i:                            ; preds = %30, %Vec_IntErase.exit22.i
  %31 = getelementptr inbounds nuw i8, ptr %7, i64 68
  store i32 0, ptr %31, align 4, !tbaa !48
  store i32 0, ptr %27, align 8, !tbaa !58
  %32 = getelementptr inbounds nuw i8, ptr %7, i64 80
  %33 = getelementptr inbounds nuw i8, ptr %7, i64 88
  %34 = load ptr, ptr %33, align 8, !tbaa !80
  %.not.i25.i = icmp eq ptr %34, null
  br i1 %.not.i25.i, label %Vec_IntErase.exit26.i, label %35

35:                                               ; preds = %Vec_IntErase.exit24.i
  tail call void @free(ptr noundef nonnull %34) #14
  store ptr null, ptr %33, align 8, !tbaa !80
  br label %Vec_IntErase.exit26.i

Vec_IntErase.exit26.i:                            ; preds = %35, %Vec_IntErase.exit24.i
  %36 = getelementptr inbounds nuw i8, ptr %7, i64 84
  store i32 0, ptr %36, align 4, !tbaa !48
  store i32 0, ptr %32, align 8, !tbaa !58
  %37 = getelementptr inbounds nuw i8, ptr %7, i64 96
  %38 = getelementptr inbounds nuw i8, ptr %7, i64 104
  %39 = load ptr, ptr %38, align 8, !tbaa !80
  %.not.i27.i = icmp eq ptr %39, null
  br i1 %.not.i27.i, label %Vec_IntErase.exit28.i, label %40

40:                                               ; preds = %Vec_IntErase.exit26.i
  tail call void @free(ptr noundef nonnull %39) #14
  store ptr null, ptr %38, align 8, !tbaa !80
  br label %Vec_IntErase.exit28.i

Vec_IntErase.exit28.i:                            ; preds = %40, %Vec_IntErase.exit26.i
  %41 = getelementptr inbounds nuw i8, ptr %7, i64 100
  store i32 0, ptr %41, align 4, !tbaa !48
  store i32 0, ptr %37, align 8, !tbaa !58
  %42 = getelementptr inbounds nuw i8, ptr %7, i64 112
  %43 = getelementptr inbounds nuw i8, ptr %7, i64 120
  %44 = load ptr, ptr %43, align 8, !tbaa !80
  %.not.i29.i = icmp eq ptr %44, null
  br i1 %.not.i29.i, label %Vec_IntErase.exit30.i, label %45

45:                                               ; preds = %Vec_IntErase.exit28.i
  tail call void @free(ptr noundef nonnull %44) #14
  store ptr null, ptr %43, align 8, !tbaa !80
  br label %Vec_IntErase.exit30.i

Vec_IntErase.exit30.i:                            ; preds = %45, %Vec_IntErase.exit28.i
  %46 = getelementptr inbounds nuw i8, ptr %7, i64 116
  store i32 0, ptr %46, align 4, !tbaa !48
  store i32 0, ptr %42, align 8, !tbaa !58
  %47 = getelementptr inbounds nuw i8, ptr %7, i64 128
  %48 = getelementptr inbounds nuw i8, ptr %7, i64 136
  %49 = load ptr, ptr %48, align 8, !tbaa !80
  %.not.i31.i = icmp eq ptr %49, null
  br i1 %.not.i31.i, label %Vec_IntErase.exit32.i, label %50

50:                                               ; preds = %Vec_IntErase.exit30.i
  tail call void @free(ptr noundef nonnull %49) #14
  store ptr null, ptr %48, align 8, !tbaa !80
  br label %Vec_IntErase.exit32.i

Vec_IntErase.exit32.i:                            ; preds = %50, %Vec_IntErase.exit30.i
  %51 = getelementptr inbounds nuw i8, ptr %7, i64 132
  store i32 0, ptr %51, align 4, !tbaa !48
  store i32 0, ptr %47, align 8, !tbaa !58
  %52 = getelementptr inbounds nuw i8, ptr %7, i64 144
  %53 = getelementptr inbounds nuw i8, ptr %7, i64 152
  %54 = load ptr, ptr %53, align 8, !tbaa !80
  %.not.i33.i = icmp eq ptr %54, null
  br i1 %.not.i33.i, label %Vec_IntErase.exit34.i, label %55

55:                                               ; preds = %Vec_IntErase.exit32.i
  tail call void @free(ptr noundef nonnull %54) #14
  store ptr null, ptr %53, align 8, !tbaa !80
  br label %Vec_IntErase.exit34.i

Vec_IntErase.exit34.i:                            ; preds = %55, %Vec_IntErase.exit32.i
  %56 = getelementptr inbounds nuw i8, ptr %7, i64 148
  store i32 0, ptr %56, align 4, !tbaa !48
  store i32 0, ptr %52, align 8, !tbaa !58
  %57 = getelementptr inbounds nuw i8, ptr %7, i64 160
  %58 = getelementptr inbounds nuw i8, ptr %7, i64 168
  %59 = load ptr, ptr %58, align 8, !tbaa !80
  %.not.i35.i = icmp eq ptr %59, null
  br i1 %.not.i35.i, label %Vec_IntErase.exit36.i, label %60

60:                                               ; preds = %Vec_IntErase.exit34.i
  tail call void @free(ptr noundef nonnull %59) #14
  store ptr null, ptr %58, align 8, !tbaa !80
  br label %Vec_IntErase.exit36.i

Vec_IntErase.exit36.i:                            ; preds = %60, %Vec_IntErase.exit34.i
  %61 = getelementptr inbounds nuw i8, ptr %7, i64 164
  store i32 0, ptr %61, align 4, !tbaa !48
  store i32 0, ptr %57, align 8, !tbaa !58
  %62 = getelementptr inbounds nuw i8, ptr %7, i64 176
  %63 = getelementptr inbounds nuw i8, ptr %7, i64 184
  %64 = load ptr, ptr %63, align 8, !tbaa !80
  %.not.i37.i = icmp eq ptr %64, null
  br i1 %.not.i37.i, label %Vec_IntErase.exit38.i, label %65

65:                                               ; preds = %Vec_IntErase.exit36.i
  tail call void @free(ptr noundef nonnull %64) #14
  store ptr null, ptr %63, align 8, !tbaa !80
  br label %Vec_IntErase.exit38.i

Vec_IntErase.exit38.i:                            ; preds = %65, %Vec_IntErase.exit36.i
  %66 = getelementptr inbounds nuw i8, ptr %7, i64 180
  store i32 0, ptr %66, align 4, !tbaa !48
  store i32 0, ptr %62, align 8, !tbaa !58
  %67 = getelementptr inbounds nuw i8, ptr %7, i64 192
  %68 = getelementptr inbounds nuw i8, ptr %7, i64 200
  %69 = load ptr, ptr %68, align 8, !tbaa !80
  %.not.i39.i = icmp eq ptr %69, null
  br i1 %.not.i39.i, label %Vec_IntErase.exit40.i, label %70

70:                                               ; preds = %Vec_IntErase.exit38.i
  tail call void @free(ptr noundef nonnull %69) #14
  store ptr null, ptr %68, align 8, !tbaa !80
  br label %Vec_IntErase.exit40.i

Vec_IntErase.exit40.i:                            ; preds = %70, %Vec_IntErase.exit38.i
  %71 = getelementptr inbounds nuw i8, ptr %7, i64 196
  store i32 0, ptr %71, align 4, !tbaa !48
  store i32 0, ptr %67, align 8, !tbaa !58
  %72 = getelementptr inbounds nuw i8, ptr %7, i64 216
  %73 = load ptr, ptr %72, align 8, !tbaa !80
  %.not.i41.i = icmp eq ptr %73, null
  br i1 %.not.i41.i, label %Psr_NtkFree.exit, label %74

74:                                               ; preds = %Vec_IntErase.exit40.i
  tail call void @free(ptr noundef nonnull %73) #14
  br label %Psr_NtkFree.exit

Psr_NtkFree.exit:                                 ; preds = %Vec_IntErase.exit40.i, %74
  tail call void @free(ptr noundef nonnull %7) #14
  %indvars.iv.next = add nuw nsw i64 %indvars.iv, 1
  %.val = load i32, ptr %2, align 4, !tbaa !40
  %75 = sext i32 %.val to i64
  %76 = icmp slt i64 %indvars.iv.next, %75
  br i1 %76, label %5, label %.critedge, !llvm.loop !90

.critedge:                                        ; preds = %Psr_NtkFree.exit, %1
  %77 = getelementptr inbounds nuw i8, ptr %0, i64 8
  %78 = load ptr, ptr %77, align 8, !tbaa !86
  %.not.i7 = icmp eq ptr %78, null
  br i1 %.not.i7, label %Vec_PtrFree.exit, label %79

79:                                               ; preds = %.critedge
  tail call void @free(ptr noundef nonnull %78) #14
  br label %Vec_PtrFree.exit

Vec_PtrFree.exit:                                 ; preds = %.critedge, %79
  tail call void @free(ptr noundef nonnull %0) #14
  ret void
}